; Function Attrs: nounwind uwtable
define ptr @OSSL_CMP_ITAV_new0_crlStatusList(ptr noundef %0) local_unnamed_addr #1 {
  %2 = tail call ptr @ASN1_item_new(ptr noundef nonnull @OSSL_CMP_ITAV_it.local_it) #6
  %3 = icmp eq ptr %2, null
  br i1 %3, label %7, label %4

4:                                                ; preds = %1
  %5 = tail call ptr @OBJ_nid2obj(i32 noundef 1256) #6
  store ptr %5, ptr %2, align 8, !tbaa !3
  %6 = getelementptr inbounds nuw i8, ptr %2, i64 8
  store ptr %0, ptr %6, align 8, !tbaa !9
  br label %7

7:                                                ; preds = %1, %4
  ret ptr %2
}